target datalayout = "e-m:e-p270:32:32-p271:32:32-p272:64:64-i64:64-i128:128-f80:128-n8:16:32:64-S128"
target triple = "x86_64-unknown-linux-gnu"

%struct.aiTexture = type <{ i32, i32, [9 x i8], [7 x i8], ptr, %struct.aiString, [4 x i8] }>
%struct.aiString = type { i32, [1024 x i8] }
%"struct.Assimp::MDL::Material_MDL7" = type { %"struct.Assimp::MDL::ColorValue_MDL7", %"struct.Assimp::MDL::ColorValue_MDL7", %"struct.Assimp::MDL::ColorValue_MDL7", %"struct.Assimp::MDL::ColorValue_MDL7", float }
%"struct.Assimp::MDL::ColorValue_MDL7" = type { float, float, float, float }

; Function Attrs: mustprogress nounwind uwtable
define linkonce_odr hidden void @_ZN8aiStringC2Ev(ptr noundef nonnull align 4 dereferenceable(1028) %this) unnamed_addr #0 comdat align 2 {
entry:
  %this.addr = alloca ptr, align 8
  store ptr %this, ptr %this.addr, align 8
  %this1 = load ptr, ptr %this.addr, align 8
  %length = getelementptr inbounds %struct.aiString, ptr %this1, i32 0, i32 0
  store i32 0, ptr %length, align 4
  %data = getelementptr inbounds %struct.aiString, ptr %this1, i32 0, i32 1
  %arrayidx = getelementptr inbounds [1024 x i8], ptr %data, i64 0, i64 0
  store i8 0, ptr %arrayidx, align 4
  ret void
}

; Function Attrs: mustprogress nounwind uwtable
define linkonce_odr hidden void @_ZN9aiTextureD2Ev(ptr noundef nonnull align 8 dereferenceable(1060) %this) unnamed_addr #0 comdat align 2 {
entry:
  %this.addr = alloca ptr, align 8
  store ptr %this, ptr %this.addr, align 8
  %this1 = load ptr, ptr %this.addr, align 8
  %pcData = getelementptr inbounds %struct.aiTexture, ptr %this1, i32 0, i32 4
  %0 = load ptr, ptr %pcData, align 8
  %isnull = icmp eq ptr %0, null
  br i1 %isnull, label %delete.end, label %delete.notnull

delete.notnull:                                   ; preds = %entry
  call void @_ZdaPv(ptr noundef %0) #18
  br label %delete.end

delete.end:                                       ; preds = %delete.notnull, %entry
  ret void
}

; Function Attrs: mustprogress nounwind uwtable
define linkonce_odr hidden void @_ZN9aiTextureC2Ev(ptr noundef nonnull align 8 dereferenceable(1060) %this) unnamed_addr #0 comdat align 2 {
entry:
  %this.addr = alloca ptr, align 8
  store ptr %this, ptr %this.addr, align 8
  %this1 = load ptr, ptr %this.addr, align 8
  %mWidth = getelementptr inbounds %struct.aiTexture, ptr %this1, i32 0, i32 0
  store i32 0, ptr %mWidth, align 8
  %mHeight = getelementptr inbounds %struct.aiTexture, ptr %this1, i32 0, i32 1
  store i32 0, ptr %mHeight, align 4
  %pcData = getelementptr inbounds %struct.aiTexture, ptr %this1, i32 0, i32 4
  store ptr null, ptr %pcData, align 8
  %mFilename = getelementptr inbounds %struct.aiTexture, ptr %this1, i32 0, i32 5
  call void @_ZN8aiStringC2Ev(ptr noundef nonnull align 4 dereferenceable(1028) %mFilename) #15
  %achFormatHint = getelementptr inbounds %struct.aiTexture, ptr %this1, i32 0, i32 2
  %arraydecay = getelementptr inbounds [9 x i8], ptr %achFormatHint, i64 0, i64 0
  call void @llvm.memset.p0.i64(ptr align 8 %arraydecay, i8 0, i64 9, i1 false)
  ret void
}

; Function Attrs: mustprogress uwtable
define hidden void @_ZN6Assimp11MDLImporter22SkipSkinLump_3DGS_MDL7EPKhPS2_jjj(ptr noundef nonnull align 8 dereferenceable(158) %this, ptr noundef %szCurrent, ptr noundef %szCurrentOut, i32 noundef %iType, i32 noundef %iWidth, i32 noundef %iHeight) #2 align 2 personality ptr @__gxx_personality_v0 {
entry:
  %this.addr = alloca ptr, align 8
  %szCurrent.addr = alloca ptr, align 8
  %szCurrentOut.addr = alloca ptr, align 8
  %iType.addr = alloca i32, align 4
  %iWidth.addr = alloca i32, align 4
  %iHeight.addr = alloca i32, align 4
  %iMasked = alloca i32, align 4
  %iLen = alloca i64, align 8
  %iSkip = alloca i32, align 4
  %tex = alloca %struct.aiTexture, align 8
  %exn.slot = alloca ptr, align 8
  %ehselector.slot = alloca i32, align 4
  %pcMatIn = alloca ptr, align 8
  %iMe = alloca i32, align 4
  store ptr %this, ptr %this.addr, align 8
  store ptr %szCurrent, ptr %szCurrent.addr, align 8
  store ptr %szCurrentOut, ptr %szCurrentOut.addr, align 8
  store i32 %iType, ptr %iType.addr, align 4
  store i32 %iWidth, ptr %iWidth.addr, align 4
  store i32 %iHeight, ptr %iHeight.addr, align 4
  %this1 = load ptr, ptr %this.addr, align 8
  %0 = load i32, ptr %iType.addr, align 4
  %and = and i32 %0, 15
  store i32 %and, ptr %iMasked, align 4
  %1 = load i32, ptr %iMasked, align 4
  %cmp = icmp eq i32 6, %1
  br i1 %cmp, label %if.then, label %if.end

if.then:                                          ; preds = %entry
  %2 = load i32, ptr %iWidth.addr, align 4
  %3 = load ptr, ptr %szCurrent.addr, align 8
  %idx.ext = zext i32 %2 to i64
  %add.ptr = getelementptr inbounds i8, ptr %3, i64 %idx.ext
  store ptr %add.ptr, ptr %szCurrent.addr, align 8
  br label %if.end

if.end:                                           ; preds = %if.then, %entry
  %4 = load i32, ptr %iMasked, align 4
  %cmp2 = icmp eq i32 7, %4
  br i1 %cmp2, label %if.then3, label %if.else

if.then3:                                         ; preds = %if.end
  %5 = load ptr, ptr %szCurrent.addr, align 8
  %call = call i64 @strlen(ptr noundef %5) #19
  store i64 %call, ptr %iLen, align 8
  %6 = load i64, ptr %iLen, align 8
  %add = add i64 %6, 1
  %7 = load ptr, ptr %szCurrent.addr, align 8
  %add.ptr4 = getelementptr inbounds i8, ptr %7, i64 %add
  store ptr %add.ptr4, ptr %szCurrent.addr, align 8
  br label %if.end24

if.else:                                          ; preds = %if.end
  %8 = load i32, ptr %iMasked, align 4
  %tobool = icmp ne i32 %8, 0
  br i1 %tobool, label %if.then6, label %lor.lhs.false

lor.lhs.false:                                    ; preds = %if.else
  %9 = load i32, ptr %iType.addr, align 4
  %tobool5 = icmp ne i32 %9, 0
  br i1 %tobool5, label %if.end23, label %if.then6

if.then6:                                         ; preds = %lor.lhs.false, %if.else
  %10 = load i32, ptr %iMasked, align 4
  %tobool7 = icmp ne i32 %10, 0
  br i1 %tobool7, label %if.then15, label %lor.lhs.false8

lor.lhs.false8:                                   ; preds = %if.then6
  %11 = load i32, ptr %iType.addr, align 4
  %tobool9 = icmp ne i32 %11, 0
  br i1 %tobool9, label %lor.lhs.false10, label %if.then15

lor.lhs.false10:                                  ; preds = %lor.lhs.false8
  %12 = load i32, ptr %iType.addr, align 4
  %tobool11 = icmp ne i32 %12, 0
  br i1 %tobool11, label %land.lhs.true, label %if.end22

land.lhs.true:                                    ; preds = %lor.lhs.false10
  %13 = load i32, ptr %iWidth.addr, align 4
  %tobool12 = icmp ne i32 %13, 0
  br i1 %tobool12, label %land.lhs.true13, label %if.end22

land.lhs.true13:                                  ; preds = %land.lhs.true
  %14 = load i32, ptr %iHeight.addr, align 4
  %tobool14 = icmp ne i32 %14, 0
  br i1 %tobool14, label %if.then15, label %if.end22

if.then15:                                        ; preds = %land.lhs.true13, %lor.lhs.false8, %if.then6
  store i32 0, ptr %iSkip, align 4
  call void @_ZN9aiTextureC2Ev(ptr noundef nonnull align 8 dereferenceable(1060) %tex) #15
  %pcData = getelementptr inbounds %struct.aiTexture, ptr %tex, i32 0, i32 4
  store ptr inttoptr (i64 -1 to ptr), ptr %pcData, align 8
  %15 = load i32, ptr %iHeight.addr, align 4
  %mHeight = getelementptr inbounds %struct.aiTexture, ptr %tex, i32 0, i32 1
  store i32 %15, ptr %mHeight, align 4
  %16 = load i32, ptr %iWidth.addr, align 4
  %mWidth = getelementptr inbounds %struct.aiTexture, ptr %tex, i32 0, i32 0
  store i32 %16, ptr %mWidth, align 8
  %17 = load ptr, ptr %szCurrent.addr, align 8
  %18 = load i32, ptr %iMasked, align 4
  invoke void @_ZN6Assimp11MDLImporter21ParseTextureColorDataEPKhjPjP9aiTexture(ptr noundef nonnull align 8 dereferenceable(158) %this1, ptr noundef %17, i32 noundef %18, ptr noundef %iSkip, ptr noundef %tex)
          to label %invoke.cont unwind label %lpad

invoke.cont:                                      ; preds = %if.then15
  br label %try.cont

lpad:                                             ; preds = %if.then15
  %19 = landingpad { ptr, i32 }
          catch ptr null
  %20 = extractvalue { ptr, i32 } %19, 0
  store ptr %20, ptr %exn.slot, align 8
  %21 = extractvalue { ptr, i32 } %19, 1
  store i32 %21, ptr %ehselector.slot, align 4
  br label %catch

catch:                                            ; preds = %lpad
  %exn = load ptr, ptr %exn.slot, align 8
  %22 = call ptr @__cxa_begin_catch(ptr %exn) #15
  %pcData16 = getelementptr inbounds %struct.aiTexture, ptr %tex, i32 0, i32 4
  store ptr null, ptr %pcData16, align 8
  invoke void @__cxa_rethrow() #17
          to label %unreachable unwind label %lpad17

lpad17:                                           ; preds = %catch
  %23 = landingpad { ptr, i32 }
          cleanup
  %24 = extractvalue { ptr, i32 } %23, 0
  store ptr %24, ptr %exn.slot, align 8
  %25 = extractvalue { ptr, i32 } %23, 1
  store i32 %25, ptr %ehselector.slot, align 4
  invoke void @__cxa_end_catch()
          to label %invoke.cont18 unwind label %terminate.lpad

invoke.cont18:                                    ; preds = %lpad17
  call void @_ZN9aiTextureD2Ev(ptr noundef nonnull align 8 dereferenceable(1060) %tex) #15
  br label %eh.resume

try.cont:                                         ; preds = %invoke.cont
  %pcData19 = getelementptr inbounds %struct.aiTexture, ptr %tex, i32 0, i32 4
  store ptr null, ptr %pcData19, align 8
  %26 = load i32, ptr %iSkip, align 4
  %27 = load ptr, ptr %szCurrent.addr, align 8
  %idx.ext20 = zext i32 %26 to i64
  %add.ptr21 = getelementptr inbounds i8, ptr %27, i64 %idx.ext20
  store ptr %add.ptr21, ptr %szCurrent.addr, align 8
  call void @_ZN9aiTextureD2Ev(ptr noundef nonnull align 8 dereferenceable(1060) %tex) #15
  br label %if.end22

if.end22:                                         ; preds = %try.cont, %land.lhs.true13, %land.lhs.true, %lor.lhs.false10
  br label %if.end23

if.end23:                                         ; preds = %if.end22, %lor.lhs.false
  br label %if.end24

if.end24:                                         ; preds = %if.end23, %if.then3
  %28 = load i32, ptr %iType.addr, align 4
  %and25 = and i32 %28, 16
  %tobool26 = icmp ne i32 %and25, 0
  br i1 %tobool26, label %if.then27, label %if.end29

if.then27:                                        ; preds = %if.end24
  %29 = load ptr, ptr %szCurrent.addr, align 8
  store ptr %29, ptr %pcMatIn, align 8
  %30 = load ptr, ptr %pcMatIn, align 8
  %add.ptr28 = getelementptr inbounds %"struct.Assimp::MDL::Material_MDL7", ptr %30, i64 1
  store ptr %add.ptr28, ptr %szCurrent.addr, align 8
  br label %if.end29

if.end29:                                         ; preds = %if.then27, %if.end24
  %31 = load i32, ptr %iType.addr, align 4
  %and30 = and i32 %31, 32
  %tobool31 = icmp ne i32 %and30, 0
  br i1 %tobool31, label %if.then32, label %if.end35

if.then32:                                        ; preds = %if.end29
  %32 = load ptr, ptr %szCurrent.addr, align 8
  %33 = load i32, ptr %32, align 4
  store i32 %33, ptr %iMe, align 4
  %34 = load i32, ptr %iMe, align 4
  %conv = sext i32 %34 to i64
  %mul = mul i64 1, %conv
  %add33 = add i64 %mul, 4
  %35 = load ptr, ptr %szCurrent.addr, align 8
  %add.ptr34 = getelementptr inbounds i8, ptr %35, i64 %add33
  store ptr %add.ptr34, ptr %szCurrent.addr, align 8
  br label %if.end35

if.end35:                                         ; preds = %if.then32, %if.end29
  %36 = load ptr, ptr %szCurrent.addr, align 8
  %37 = load ptr, ptr %szCurrentOut.addr, align 8
  store ptr %36, ptr %37, align 8
  ret void

eh.resume:                                        ; preds = %invoke.cont18
  %exn36 = load ptr, ptr %exn.slot, align 8
  %sel = load i32, ptr %ehselector.slot, align 4
  %lpad.val = insertvalue { ptr, i32 } poison, ptr %exn36, 0
  %lpad.val37 = insertvalue { ptr, i32 } %lpad.val, i32 %sel, 1
  resume { ptr, i32 } %lpad.val37

terminate.lpad:                                   ; preds = %lpad17
  %38 = landingpad { ptr, i32 }
          catch ptr null
  %39 = extractvalue { ptr, i32 } %38, 0
  call void @__clang_call_terminate(ptr %39) #14
  unreachable

unreachable:                                      ; preds = %catch
  unreachable
}