; Function Attrs: mustprogress uwtable
define hidden void @_ZN6Assimp11MDLImporter22SkipSkinLump_3DGS_MDL7EPKhPS2_jjj(ptr noundef nonnull align 8 dereferenceable(158) %this, ptr noundef %szCurrent, ptr nocapture noundef writeonly %szCurrentOut, i32 noundef %iType, i32 noundef %iWidth, i32 noundef %iHeight) local_unnamed_addr #0 align 2 personality ptr @__gxx_personality_v0 {
entry:
  %iSkip = alloca i32, align 4
  %tex = alloca %struct.aiTexture, align 8
  %and = and i32 %iType, 15
  %cmp = icmp eq i32 %and, 6
  %narrow = select i1 %cmp, i32 %iWidth, i32 0
  %szCurrent.addr.0.idx = zext i32 %narrow to i64
  %szCurrent.addr.0 = getelementptr inbounds i8, ptr %szCurrent, i64 %szCurrent.addr.0.idx
  %cmp2 = icmp eq i32 %and, 7
  br i1 %cmp2, label %if.then3, label %if.else

if.then3:                                         ; preds = %entry
  %call = tail call i64 @strlen(ptr noundef nonnull dereferenceable(1) %szCurrent) #20
  %0 = getelementptr i8, ptr %szCurrent, i64 %call
  %add.ptr4 = getelementptr i8, ptr %0, i64 1
  br label %if.end24

if.else:                                          ; preds = %entry
  %tobool = icmp eq i32 %and, 0
  %tobool5 = icmp ne i32 %iType, 0
  %or.cond = and i1 %tobool5, %tobool
  br i1 %or.cond, label %if.end24, label %if.then15

if.then15:                                        ; preds = %if.else
  store i32 0, ptr %iSkip, align 4
  %pcData.i = getelementptr inbounds i8, ptr %tex, i64 24
  %mFilename.i = getelementptr inbounds i8, ptr %tex, i64 32
  store i32 0, ptr %mFilename.i, align 8
  %data.i.i = getelementptr inbounds i8, ptr %tex, i64 36
  store i8 0, ptr %data.i.i, align 4
  %1 = getelementptr inbounds i8, ptr %tex, i64 8
  call void @llvm.memset.p0.i64(ptr noundef nonnull align 8 dereferenceable(17) %1, i8 0, i64 9, i1 false)
  store ptr inttoptr (i64 -1 to ptr), ptr %pcData.i, align 8
  %mHeight = getelementptr inbounds i8, ptr %tex, i64 4
  store i32 %iHeight, ptr %mHeight, align 4
  store i32 %iWidth, ptr %tex, align 8
  invoke void @_ZN6Assimp11MDLImporter21ParseTextureColorDataEPKhjPjP9aiTexture(ptr noundef nonnull align 8 dereferenceable(158) %this, ptr noundef %szCurrent.addr.0, i32 noundef %and, ptr noundef nonnull %iSkip, ptr noundef nonnull %tex)
          to label %_ZN9aiTextureD2Ev.exit28 unwind label %lpad

lpad:                                             ; preds = %if.then15
  %2 = landingpad { ptr, i32 }
          catch ptr null
  %3 = extractvalue { ptr, i32 } %2, 0
  %4 = tail call ptr @__cxa_begin_catch(ptr %3) #16
  invoke void @__cxa_rethrow() #19
          to label %unreachable unwind label %lpad17

lpad17:                                           ; preds = %lpad
  %5 = landingpad { ptr, i32 }
          cleanup
  invoke void @__cxa_end_catch()
          to label %_ZN9aiTextureD2Ev.exit unwind label %terminate.lpad

_ZN9aiTextureD2Ev.exit:                           ; preds = %lpad17
  resume { ptr, i32 } %5

_ZN9aiTextureD2Ev.exit28:                         ; preds = %if.then15
  %6 = load i32, ptr %iSkip, align 4
  %idx.ext20 = zext i32 %6 to i64
  %add.ptr21 = getelementptr inbounds i8, ptr %szCurrent.addr.0, i64 %idx.ext20
  br label %if.end24

if.end24:                                         ; preds = %if.else, %_ZN9aiTextureD2Ev.exit28, %if.then3
  %szCurrent.addr.1 = phi ptr [ %add.ptr4, %if.then3 ], [ %szCurrent.addr.0, %if.else ], [ %add.ptr21, %_ZN9aiTextureD2Ev.exit28 ]
  %and25 = and i32 %iType, 16
  %tobool26.not = icmp eq i32 %and25, 0
  %spec.select.idx = select i1 %tobool26.not, i64 0, i64 68
  %spec.select = getelementptr inbounds i8, ptr %szCurrent.addr.1, i64 %spec.select.idx
  %and30 = and i32 %iType, 32
  %tobool31.not = icmp eq i32 %and30, 0
  br i1 %tobool31.not, label %if.end35, label %if.then32

if.then32:                                        ; preds = %if.end24
  %7 = load i32, ptr %spec.select, align 4
  %conv = sext i32 %7 to i64
  %8 = getelementptr i8, ptr %spec.select, i64 %conv
  %add.ptr34 = getelementptr i8, ptr %8, i64 4
  br label %if.end35

if.end35:                                         ; preds = %if.then32, %if.end24
  %szCurrent.addr.3 = phi ptr [ %add.ptr34, %if.then32 ], [ %spec.select, %if.end24 ]
  store ptr %szCurrent.addr.3, ptr %szCurrentOut, align 8
  ret void

terminate.lpad:                                   ; preds = %lpad17
  %9 = landingpad { ptr, i32 }
          catch ptr null
  %10 = extractvalue { ptr, i32 } %9, 0
  tail call void @__clang_call_terminate(ptr %10) #21
  unreachable

unreachable:                                      ; preds = %lpad
  unreachable
}